
Morning_clock.elf:     file format elf32-avr

Sections:
Idx Name          Size      VMA       LMA       File off  Algn
  0 .text         000008d2  00000000  00000000  000000d4  2**1
                  CONTENTS, ALLOC, LOAD, READONLY, CODE
  1 .data         00000016  00800060  000008d2  000009a6  2**0
                  CONTENTS, ALLOC, LOAD, DATA
  2 .bss          00000011  00800076  00800076  000009bc  2**0
                  ALLOC
  3 .eeprom       0000000c  00810000  00810000  000009bc  2**0
                  CONTENTS, ALLOC, LOAD, DATA
  4 .fuse         00000002  00820000  00820000  000009c8  2**0
                  CONTENTS, ALLOC, LOAD, DATA
  5 .comment      00000030  00000000  00000000  000009ca  2**0
                  CONTENTS, READONLY
  6 .note.gnu.avr.deviceinfo 0000003c  00000000  00000000  000009fc  2**2
                  CONTENTS, READONLY
  7 .debug_aranges 00000040  00000000  00000000  00000a38  2**3
                  CONTENTS, READONLY, DEBUGGING
  8 .debug_info   000005e0  00000000  00000000  00000a78  2**0
                  CONTENTS, READONLY, DEBUGGING
  9 .debug_abbrev 00000476  00000000  00000000  00001058  2**0
                  CONTENTS, READONLY, DEBUGGING
 10 .debug_line   0000021b  00000000  00000000  000014ce  2**0
                  CONTENTS, READONLY, DEBUGGING
 11 .debug_str    0000017a  00000000  00000000  000016e9  2**0
                  CONTENTS, READONLY, DEBUGGING

Disassembly of section .text:

00000000 <__vectors>:
   0:	ac c0       	rjmp	.+344    	; 0x15a <__ctors_end>
   2:	4b c2       	rjmp	.+1174   	; 0x49a <__vector_1>
   4:	64 c2       	rjmp	.+1224   	; 0x4ce <__vector_2>
   6:	c4 c0       	rjmp	.+392    	; 0x190 <__bad_interrupt>
   8:	8e c1       	rjmp	.+796    	; 0x326 <__vector_4>
   a:	c2 c0       	rjmp	.+388    	; 0x190 <__bad_interrupt>
   c:	c1 c0       	rjmp	.+386    	; 0x190 <__bad_interrupt>
   e:	c0 c0       	rjmp	.+384    	; 0x190 <__bad_interrupt>
  10:	bf c0       	rjmp	.+382    	; 0x190 <__bad_interrupt>
  12:	77 c2       	rjmp	.+1262   	; 0x502 <__vector_9>
  14:	bd c0       	rjmp	.+378    	; 0x190 <__bad_interrupt>
  16:	bc c0       	rjmp	.+376    	; 0x190 <__bad_interrupt>
  18:	bb c0       	rjmp	.+374    	; 0x190 <__bad_interrupt>
  1a:	ba c0       	rjmp	.+372    	; 0x190 <__bad_interrupt>
  1c:	b9 c0       	rjmp	.+370    	; 0x190 <__bad_interrupt>
  1e:	b8 c0       	rjmp	.+368    	; 0x190 <__bad_interrupt>
  20:	b7 c0       	rjmp	.+366    	; 0x190 <__bad_interrupt>
  22:	b6 c0       	rjmp	.+364    	; 0x190 <__bad_interrupt>
  24:	b5 c0       	rjmp	.+362    	; 0x190 <__bad_interrupt>
  26:	2f c1       	rjmp	.+606    	; 0x286 <main+0xd2>
  28:	37 c1       	rjmp	.+622    	; 0x298 <main+0xe4>
  2a:	47 c1       	rjmp	.+654    	; 0x2ba <main+0x106>
  2c:	4d c1       	rjmp	.+666    	; 0x2c8 <main+0x114>
  2e:	4c c1       	rjmp	.+664    	; 0x2c8 <main+0x114>
  30:	4b c1       	rjmp	.+662    	; 0x2c8 <main+0x114>
  32:	4a c1       	rjmp	.+660    	; 0x2c8 <main+0x114>
  34:	49 c1       	rjmp	.+658    	; 0x2c8 <main+0x114>
  36:	48 c1       	rjmp	.+656    	; 0x2c8 <main+0x114>
  38:	47 c1       	rjmp	.+654    	; 0x2c8 <main+0x114>
  3a:	4e c1       	rjmp	.+668    	; 0x2d8 <main+0x124>
  3c:	54 c1       	rjmp	.+680    	; 0x2e6 <main+0x132>
  3e:	62 c1       	rjmp	.+708    	; 0x304 <main+0x150>
  40:	70 c3       	rjmp	.+1760   	; 0x722 <__vector_9+0x220>
  42:	7a c3       	rjmp	.+1780   	; 0x738 <__vector_9+0x236>
  44:	8b c3       	rjmp	.+1814   	; 0x75c <__vector_9+0x25a>
  46:	96 c3       	rjmp	.+1836   	; 0x774 <__vector_9+0x272>
  48:	95 c3       	rjmp	.+1834   	; 0x774 <__vector_9+0x272>
  4a:	94 c3       	rjmp	.+1832   	; 0x774 <__vector_9+0x272>
  4c:	93 c3       	rjmp	.+1830   	; 0x774 <__vector_9+0x272>
  4e:	92 c3       	rjmp	.+1828   	; 0x774 <__vector_9+0x272>
  50:	91 c3       	rjmp	.+1826   	; 0x774 <__vector_9+0x272>
  52:	90 c3       	rjmp	.+1824   	; 0x774 <__vector_9+0x272>
  54:	9c c3       	rjmp	.+1848   	; 0x78e <__vector_9+0x28c>
  56:	b0 c3       	rjmp	.+1888   	; 0x7b8 <__vector_9+0x2b6>
  58:	c0 c3       	rjmp	.+1920   	; 0x7da <__vector_9+0x2d8>

0000005a <__trampolines_end>:
  5a:	00 00       	nop
  5c:	00 00       	nop
  5e:	00 01       	movw	r0, r0
  60:	01 01       	movw	r0, r2
  62:	01 01       	movw	r0, r2
  64:	01 01       	movw	r0, r2
  66:	01 01       	movw	r0, r2
  68:	02 02       	muls	r16, r18
  6a:	02 02       	muls	r16, r18
  6c:	02 02       	muls	r16, r18
  6e:	02 02       	muls	r16, r18
  70:	02 03       	mulsu	r16, r18
  72:	03 03       	mulsu	r16, r19
  74:	03 03       	mulsu	r16, r19
  76:	03 03       	mulsu	r16, r19
  78:	03 04       	cpc	r0, r3
  7a:	04 04       	cpc	r0, r4
  7c:	04 04       	cpc	r0, r4
  7e:	04 05       	cpc	r16, r4
  80:	05 05       	cpc	r16, r5
  82:	05 05       	cpc	r16, r5
  84:	06 06       	cpc	r0, r22
  86:	06 06       	cpc	r0, r22
  88:	06 07       	cpc	r16, r22
  8a:	07 07       	cpc	r16, r23
  8c:	07 08       	sbc	r0, r7
  8e:	08 08       	sbc	r0, r8
  90:	08 09       	sbc	r16, r8
  92:	09 09       	sbc	r16, r9
  94:	0a 0a       	sbc	r0, r26
  96:	0a 0a       	sbc	r0, r26
  98:	0b 0b       	sbc	r16, r27
  9a:	0b 0c       	add	r0, r11
  9c:	0c 0c       	add	r0, r12
  9e:	0d 0d       	add	r16, r13
  a0:	0d 0e       	add	r0, r29
  a2:	0e 0f       	add	r16, r30
  a4:	0f 0f       	add	r16, r31
  a6:	10 10       	cpse	r1, r0
  a8:	11 11       	cpse	r17, r1
  aa:	11 12       	cpse	r1, r17
  ac:	12 13       	cpse	r17, r18
  ae:	13 14       	cp	r1, r3
  b0:	14 15       	cp	r17, r4
  b2:	15 16       	cp	r1, r21
  b4:	16 17       	cp	r17, r22
  b6:	17 18       	sub	r1, r7
  b8:	18 19       	sub	r17, r8
  ba:	19 1a       	sub	r1, r25
  bc:	1a 1b       	sub	r17, r26
  be:	1c 1c       	adc	r1, r12
  c0:	1d 1d       	adc	r17, r13
  c2:	1e 1f       	adc	r17, r30
  c4:	1f 20       	and	r1, r15
  c6:	20 21       	and	r18, r0
  c8:	22 22       	and	r2, r18
  ca:	23 24       	eor	r2, r3
  cc:	25 25       	eor	r18, r5
  ce:	26 27       	eor	r18, r22
  d0:	27 28       	or	r2, r7
  d2:	29 2a       	or	r2, r25
  d4:	2b 2b       	or	r18, r27
  d6:	2c 2d       	mov	r18, r12
  d8:	2e 2f       	mov	r18, r30
  da:	2f 30       	cpi	r18, 0x0F	; 15
  dc:	31 32       	cpi	r19, 0x21	; 33
  de:	33 34       	cpi	r19, 0x43	; 67
  e0:	35 36       	cpi	r19, 0x65	; 101
  e2:	36 37       	cpi	r19, 0x76	; 118
  e4:	38 39       	cpi	r19, 0x98	; 152
  e6:	3a 3b       	cpi	r19, 0xBA	; 186
  e8:	3c 3d       	cpi	r19, 0xDC	; 220
  ea:	3e 3f       	cpi	r19, 0xFE	; 254
  ec:	40 41       	sbci	r20, 0x10	; 16
  ee:	42 43       	sbci	r20, 0x32	; 50
  f0:	44 46       	sbci	r20, 0x64	; 100
  f2:	47 48       	sbci	r20, 0x87	; 135
  f4:	49 4a       	sbci	r20, 0xA9	; 169
  f6:	4b 4c       	sbci	r20, 0xCB	; 203
  f8:	4d 4f       	sbci	r20, 0xFD	; 253
  fa:	50 51       	subi	r21, 0x10	; 16
  fc:	52 53       	subi	r21, 0x32	; 50
  fe:	55 56       	subi	r21, 0x65	; 101
 100:	57 58       	subi	r21, 0x87	; 135
 102:	5a 5b       	subi	r21, 0xBA	; 186
 104:	5c 5e       	subi	r21, 0xEC	; 236
 106:	5f 60       	ori	r21, 0x0F	; 15
 108:	62 63       	ori	r22, 0x32	; 50
 10a:	64 66       	ori	r22, 0x64	; 100
 10c:	67 69       	ori	r22, 0x97	; 151
 10e:	6a 6c       	ori	r22, 0xCA	; 202
 110:	6d 6e       	ori	r22, 0xED	; 237
 112:	70 71       	andi	r23, 0x10	; 16
 114:	73 74       	andi	r23, 0x43	; 67
 116:	76 78       	andi	r23, 0x86	; 134
 118:	79 7b       	andi	r23, 0xB9	; 185
 11a:	7c 7e       	andi	r23, 0xEC	; 236
 11c:	80 81       	ld	r24, Z
 11e:	83 84       	ldd	r8, Z+11	; 0x0b
 120:	86 88       	ldd	r8, Z+22	; 0x16
 122:	8a 8b       	std	Y+18, r24	; 0x12
 124:	8d 8f       	std	Y+29, r24	; 0x1d
 126:	91 92       	st	Z+, r9
 128:	94 96       	adiw	r26, 0x24	; 36
 12a:	98 9a       	sbi	0x13, 0	; 19
 12c:	9b 9d       	mul	r25, r11
 12e:	9f a1       	ldd	r25, Y+39	; 0x27
 130:	a3 a5       	ldd	r26, Z+43	; 0x2b
 132:	a7 a9       	ldd	r26, Z+55	; 0x37
 134:	ab ad       	ldd	r26, Y+59	; 0x3b
 136:	af b1       	in	r26, 0x0f	; 15
 138:	b3 b5       	in	r27, 0x23	; 35
 13a:	b7 b9       	out	0x07, r27	; 7
 13c:	bb bd       	out	0x2b, r27	; 43
 13e:	bf c1       	rjmp	.+894    	; 0x4be <__vector_1+0x24>
 140:	c4 c6       	rjmp	.+3464   	; 0xeca <__data_load_end+0x5e2>
 142:	c8 ca       	rjmp	.-2672   	; 0xfffff6d4 <__fuse+0xff7df6d4>
 144:	cc cf       	rjmp	.-104    	; 0xde <__trampolines_end+0x84>
 146:	d1 d3       	rcall	.+1954   	; 0x8ea <__data_load_end+0x2>
 148:	d6 d8       	rcall	.-3668   	; 0xfffff2f6 <__fuse+0xff7df2f6>
 14a:	da dc       	rcall	.-1612   	; 0xfffffb00 <__fuse+0xff7dfb00>
 14c:	df e1       	ldi	r29, 0x1F	; 31
 14e:	e4 e6       	ldi	r30, 0x64	; 100
 150:	e8 eb       	ldi	r30, 0xB8	; 184
 152:	ed f0       	brhs	.+58     	; 0x18e <.do_clear_bss_start+0x8>
 154:	f2 f5       	brpl	.+124    	; 0x1d2 <main+0x1e>
 156:	f7 fa       	bst	r15, 7
 158:	fc ff       	.word	0xfffc	; ????

0000015a <__ctors_end>:
 15a:	11 24       	eor	r1, r1
 15c:	1f be       	out	0x3f, r1	; 63
 15e:	cf e5       	ldi	r28, 0x5F	; 95
 160:	d4 e0       	ldi	r29, 0x04	; 4
 162:	de bf       	out	0x3e, r29	; 62
 164:	cd bf       	out	0x3d, r28	; 61

00000166 <__do_copy_data>:
 166:	10 e0       	ldi	r17, 0x00	; 0
 168:	a0 e6       	ldi	r26, 0x60	; 96
 16a:	b0 e0       	ldi	r27, 0x00	; 0
 16c:	e2 ed       	ldi	r30, 0xD2	; 210
 16e:	f8 e0       	ldi	r31, 0x08	; 8
 170:	02 c0       	rjmp	.+4      	; 0x176 <__do_copy_data+0x10>
 172:	05 90       	lpm	r0, Z+
 174:	0d 92       	st	X+, r0
 176:	a6 37       	cpi	r26, 0x76	; 118
 178:	b1 07       	cpc	r27, r17
 17a:	d9 f7       	brne	.-10     	; 0x172 <__do_copy_data+0xc>

0000017c <__do_clear_bss>:
 17c:	20 e0       	ldi	r18, 0x00	; 0
 17e:	a6 e7       	ldi	r26, 0x76	; 118
 180:	b0 e0       	ldi	r27, 0x00	; 0
 182:	01 c0       	rjmp	.+2      	; 0x186 <.do_clear_bss_start>

00000184 <.do_clear_bss_loop>:
 184:	1d 92       	st	X+, r1

00000186 <.do_clear_bss_start>:
 186:	a7 38       	cpi	r26, 0x87	; 135
 188:	b2 07       	cpc	r27, r18
 18a:	e1 f7       	brne	.-8      	; 0x184 <.do_clear_bss_loop>
 18c:	13 d0       	rcall	.+38     	; 0x1b4 <main>
 18e:	9f c3       	rjmp	.+1854   	; 0x8ce <_exit>

00000190 <__bad_interrupt>:
 190:	37 cf       	rjmp	.-402    	; 0x0 <__vectors>

00000192 <BIN2BCD>:
 192:	fc 01       	movw	r30, r24
 194:	10 82       	st	Z, r1
 196:	6a 30       	cpi	r22, 0x0A	; 10
 198:	71 05       	cpc	r23, r1
 19a:	30 f0       	brcs	.+12     	; 0x1a8 <BIN2BCD+0x16>
 19c:	80 81       	ld	r24, Z
 19e:	8f 5f       	subi	r24, 0xFF	; 255
 1a0:	80 83       	st	Z, r24
 1a2:	6a 50       	subi	r22, 0x0A	; 10
 1a4:	71 09       	sbc	r23, r1
 1a6:	f7 cf       	rjmp	.-18     	; 0x196 <BIN2BCD+0x4>
 1a8:	61 83       	std	Z+1, r22	; 0x01
 1aa:	08 95       	ret

000001ac <SPI_MasterTransmit>:
 1ac:	8f b9       	out	0x0f, r24	; 15
 1ae:	77 9b       	sbis	0x0e, 7	; 14
 1b0:	fe cf       	rjmp	.-4      	; 0x1ae <SPI_MasterTransmit+0x2>
 1b2:	08 95       	ret

000001b4 <main>:
 1b4:	2f ef       	ldi	r18, 0xFF	; 255
 1b6:	84 e3       	ldi	r24, 0x34	; 52
 1b8:	9c e0       	ldi	r25, 0x0C	; 12
 1ba:	21 50       	subi	r18, 0x01	; 1
 1bc:	80 40       	sbci	r24, 0x00	; 0
 1be:	90 40       	sbci	r25, 0x00	; 0
 1c0:	e1 f7       	brne	.-8      	; 0x1ba <main+0x6>
 1c2:	00 c0       	rjmp	.+0      	; 0x1c4 <main+0x10>
 1c4:	00 00       	nop
 1c6:	8e e2       	ldi	r24, 0x2E	; 46
 1c8:	87 bb       	out	0x17, r24	; 23
 1ca:	84 e0       	ldi	r24, 0x04	; 4
 1cc:	88 bb       	out	0x18, r24	; 24
 1ce:	15 ba       	out	0x15, r1	; 21
 1d0:	8f e0       	ldi	r24, 0x0F	; 15
 1d2:	84 bb       	out	0x14, r24	; 20
 1d4:	82 b3       	in	r24, 0x12	; 18
 1d6:	8c 61       	ori	r24, 0x1C	; 28
 1d8:	82 bb       	out	0x12, r24	; 18
 1da:	11 ba       	out	0x11, r1	; 17
 1dc:	81 e5       	ldi	r24, 0x51	; 81
 1de:	8d b9       	out	0x0d, r24	; 13
 1e0:	8b b7       	in	r24, 0x3b	; 59
 1e2:	80 6c       	ori	r24, 0xC0	; 192
 1e4:	8b bf       	out	0x3b, r24	; 59
 1e6:	95 e0       	ldi	r25, 0x05	; 5
 1e8:	95 bf       	out	0x35, r25	; 53
 1ea:	80 ec       	ldi	r24, 0xC0	; 192
 1ec:	8a bf       	out	0x3a, r24	; 58
 1ee:	83 e0       	ldi	r24, 0x03	; 3
 1f0:	83 bf       	out	0x33, r24	; 51
 1f2:	12 be       	out	0x32, r1	; 50
 1f4:	81 e8       	ldi	r24, 0x81	; 129
 1f6:	8f bd       	out	0x2f, r24	; 47
 1f8:	8a e0       	ldi	r24, 0x0A	; 10
 1fa:	8e bd       	out	0x2e, r24	; 46
 1fc:	1d bc       	out	0x2d, r1	; 45
 1fe:	1c bc       	out	0x2c, r1	; 44
 200:	1b bc       	out	0x2b, r1	; 43
 202:	1a bc       	out	0x2a, r1	; 42
 204:	1f bc       	out	0x2f, r1	; 47
 206:	89 b7       	in	r24, 0x39	; 57
 208:	8f 73       	andi	r24, 0x3F	; 63
 20a:	89 bf       	out	0x39, r24	; 57
 20c:	82 b5       	in	r24, 0x22	; 34
 20e:	88 60       	ori	r24, 0x08	; 8
 210:	82 bd       	out	0x22, r24	; 34
 212:	14 bc       	out	0x24, r1	; 36
 214:	95 bd       	out	0x25, r25	; 37
 216:	13 bc       	out	0x23, r1	; 35
 218:	82 b5       	in	r24, 0x22	; 34
 21a:	87 70       	andi	r24, 0x07	; 7
 21c:	e9 f7       	brne	.-6      	; 0x218 <main+0x64>
 21e:	89 b7       	in	r24, 0x39	; 57
 220:	80 64       	ori	r24, 0x40	; 64
 222:	89 bf       	out	0x39, r24	; 57
 224:	89 b7       	in	r24, 0x39	; 57
 226:	81 60       	ori	r24, 0x01	; 1
 228:	89 bf       	out	0x39, r24	; 57
 22a:	10 92 80 00 	sts	0x0080, r1	; 0x800080 <menu>
 22e:	81 e0       	ldi	r24, 0x01	; 1
 230:	80 93 7f 00 	sts	0x007F, r24	; 0x80007f <t+0x3>
 234:	87 e0       	ldi	r24, 0x07	; 7
 236:	90 e0       	ldi	r25, 0x00	; 0
 238:	35 d3       	rcall	.+1642   	; 0x8a4 <eeprom_read_byte>
 23a:	2c e3       	ldi	r18, 0x3C	; 60
 23c:	82 9f       	mul	r24, r18
 23e:	c0 01       	movw	r24, r0
 240:	11 24       	eor	r1, r1
 242:	81 58       	subi	r24, 0x81	; 129
 244:	9f 4f       	sbci	r25, 0xFF	; 255
 246:	6f ef       	ldi	r22, 0xFF	; 255
 248:	70 e0       	ldi	r23, 0x00	; 0
 24a:	18 d3       	rcall	.+1584   	; 0x87c <__udivmodhi4>
 24c:	60 93 82 00 	sts	0x0082, r22	; 0x800082 <dawn_step>
 250:	78 94       	sei
 252:	db e0       	ldi	r29, 0x0B	; 11
 254:	11 e1       	ldi	r17, 0x11	; 17
 256:	0f e0       	ldi	r16, 0x0F	; 15
 258:	80 e1       	ldi	r24, 0x10	; 16
 25a:	f8 2e       	mov	r15, r24
 25c:	c2 e1       	ldi	r28, 0x12	; 18
 25e:	9d e0       	ldi	r25, 0x0D	; 13
 260:	e9 2e       	mov	r14, r25
 262:	2e e0       	ldi	r18, 0x0E	; 14
 264:	d2 2e       	mov	r13, r18
 266:	3a e0       	ldi	r19, 0x0A	; 10
 268:	c3 2e       	mov	r12, r19
 26a:	4c e0       	ldi	r20, 0x0C	; 12
 26c:	b4 2e       	mov	r11, r20
 26e:	60 91 80 00 	lds	r22, 0x0080	; 0x800080 <menu>
 272:	86 2f       	mov	r24, r22
 274:	90 e0       	ldi	r25, 0x00	; 0
 276:	8d 30       	cpi	r24, 0x0D	; 13
 278:	91 05       	cpc	r25, r1
 27a:	08 f0       	brcs	.+2      	; 0x27e <main+0xca>
 27c:	4a c0       	rjmp	.+148    	; 0x312 <main+0x15e>
 27e:	fc 01       	movw	r30, r24
 280:	ed 5e       	subi	r30, 0xED	; 237
 282:	ff 4f       	sbci	r31, 0xFF	; 255
 284:	09 94       	ijmp
 286:	60 91 7e 00 	lds	r22, 0x007E	; 0x80007e <t+0x2>
 28a:	70 e0       	ldi	r23, 0x00	; 0
 28c:	83 e8       	ldi	r24, 0x83	; 131
 28e:	90 e0       	ldi	r25, 0x00	; 0
 290:	80 df       	rcall	.-256    	; 0x192 <BIN2BCD>
 292:	60 91 7d 00 	lds	r22, 0x007D	; 0x80007d <t+0x1>
 296:	0c c0       	rjmp	.+24     	; 0x2b0 <main+0xfc>
 298:	8b e0       	ldi	r24, 0x0B	; 11
 29a:	90 e0       	ldi	r25, 0x00	; 0
 29c:	03 d3       	rcall	.+1542   	; 0x8a4 <eeprom_read_byte>
 29e:	68 2f       	mov	r22, r24
 2a0:	70 e0       	ldi	r23, 0x00	; 0
 2a2:	83 e8       	ldi	r24, 0x83	; 131
 2a4:	90 e0       	ldi	r25, 0x00	; 0
 2a6:	75 df       	rcall	.-278    	; 0x192 <BIN2BCD>
 2a8:	8a e0       	ldi	r24, 0x0A	; 10
 2aa:	90 e0       	ldi	r25, 0x00	; 0
 2ac:	fb d2       	rcall	.+1526   	; 0x8a4 <eeprom_read_byte>
 2ae:	68 2f       	mov	r22, r24
 2b0:	70 e0       	ldi	r23, 0x00	; 0
 2b2:	85 e8       	ldi	r24, 0x85	; 133
 2b4:	90 e0       	ldi	r25, 0x00	; 0
 2b6:	6d df       	rcall	.-294    	; 0x192 <BIN2BCD>
 2b8:	2e c0       	rjmp	.+92     	; 0x316 <main+0x162>
 2ba:	d0 93 83 00 	sts	0x0083, r29	; 0x800083 <digits>
 2be:	b0 92 84 00 	sts	0x0084, r11	; 0x800084 <digits+0x1>
 2c2:	60 91 7f 00 	lds	r22, 0x007F	; 0x80007f <t+0x3>
 2c6:	17 c0       	rjmp	.+46     	; 0x2f6 <main+0x142>
 2c8:	d0 93 83 00 	sts	0x0083, r29	; 0x800083 <digits>
 2cc:	c0 92 84 00 	sts	0x0084, r12	; 0x800084 <digits+0x1>
 2d0:	70 e0       	ldi	r23, 0x00	; 0
 2d2:	62 50       	subi	r22, 0x02	; 2
 2d4:	71 09       	sbc	r23, r1
 2d6:	10 c0       	rjmp	.+32     	; 0x2f8 <main+0x144>
 2d8:	e0 92 83 00 	sts	0x0083, r14	; 0x800083 <digits>
 2dc:	d0 92 84 00 	sts	0x0084, r13	; 0x800084 <digits+0x1>
 2e0:	89 e0       	ldi	r24, 0x09	; 9
 2e2:	90 e0       	ldi	r25, 0x00	; 0
 2e4:	06 c0       	rjmp	.+12     	; 0x2f2 <main+0x13e>
 2e6:	00 93 83 00 	sts	0x0083, r16	; 0x800083 <digits>
 2ea:	f0 92 84 00 	sts	0x0084, r15	; 0x800084 <digits+0x1>
 2ee:	88 e0       	ldi	r24, 0x08	; 8
 2f0:	90 e0       	ldi	r25, 0x00	; 0
 2f2:	d8 d2       	rcall	.+1456   	; 0x8a4 <eeprom_read_byte>
 2f4:	68 2f       	mov	r22, r24
 2f6:	70 e0       	ldi	r23, 0x00	; 0
 2f8:	85 e8       	ldi	r24, 0x85	; 133
 2fa:	90 e0       	ldi	r25, 0x00	; 0
 2fc:	4a df       	rcall	.-364    	; 0x192 <BIN2BCD>
 2fe:	c0 93 85 00 	sts	0x0085, r28	; 0x800085 <digits+0x2>
 302:	09 c0       	rjmp	.+18     	; 0x316 <main+0x162>
 304:	d0 93 83 00 	sts	0x0083, r29	; 0x800083 <digits>
 308:	10 93 84 00 	sts	0x0084, r17	; 0x800084 <digits+0x1>
 30c:	87 e0       	ldi	r24, 0x07	; 7
 30e:	90 e0       	ldi	r25, 0x00	; 0
 310:	cd cf       	rjmp	.-102    	; 0x2ac <main+0xf8>
 312:	10 92 80 00 	sts	0x0080, r1	; 0x800080 <menu>
 316:	85 b7       	in	r24, 0x35	; 53
 318:	80 68       	ori	r24, 0x80	; 128
 31a:	85 bf       	out	0x35, r24	; 53
 31c:	88 95       	sleep
 31e:	85 b7       	in	r24, 0x35	; 53
 320:	8f 77       	andi	r24, 0x7F	; 127
 322:	85 bf       	out	0x35, r24	; 53
 324:	a4 cf       	rjmp	.-184    	; 0x26e <main+0xba>

00000326 <__vector_4>:
 326:	1f 92       	push	r1
 328:	0f 92       	push	r0
 32a:	0f b6       	in	r0, 0x3f	; 63
 32c:	0f 92       	push	r0
 32e:	11 24       	eor	r1, r1
 330:	2f 93       	push	r18
 332:	3f 93       	push	r19
 334:	4f 93       	push	r20
 336:	5f 93       	push	r21
 338:	6f 93       	push	r22
 33a:	7f 93       	push	r23
 33c:	8f 93       	push	r24
 33e:	9f 93       	push	r25
 340:	af 93       	push	r26
 342:	bf 93       	push	r27
 344:	cf 93       	push	r28
 346:	df 93       	push	r29
 348:	ef 93       	push	r30
 34a:	ff 93       	push	r31
 34c:	80 91 61 00 	lds	r24, 0x0061	; 0x800061 <indication_counter>
 350:	88 23       	and	r24, r24
 352:	79 f0       	breq	.+30     	; 0x372 <__vector_4+0x4c>
 354:	81 50       	subi	r24, 0x01	; 1
 356:	80 93 61 00 	sts	0x0061, r24	; 0x800061 <indication_counter>
 35a:	81 11       	cpse	r24, r1
 35c:	0a c0       	rjmp	.+20     	; 0x372 <__vector_4+0x4c>
 35e:	10 92 80 00 	sts	0x0080, r1	; 0x800080 <menu>
 362:	88 e0       	ldi	r24, 0x08	; 8
 364:	90 e0       	ldi	r25, 0x00	; 0
 366:	9e d2       	rcall	.+1340   	; 0x8a4 <eeprom_read_byte>
 368:	88 23       	and	r24, r24
 36a:	19 f0       	breq	.+6      	; 0x372 <__vector_4+0x4c>
 36c:	8c e3       	ldi	r24, 0x3C	; 60
 36e:	80 93 61 00 	sts	0x0061, r24	; 0x800061 <indication_counter>
 372:	80 91 7b 00 	lds	r24, 0x007B	; 0x80007b <dawn_counter>
 376:	88 23       	and	r24, r24
 378:	19 f1       	breq	.+70     	; 0x3c0 <__vector_4+0x9a>
 37a:	80 91 7a 00 	lds	r24, 0x007A	; 0x80007a <PWM_SEC_Counter>
 37e:	8f 5f       	subi	r24, 0xFF	; 255
 380:	80 93 7a 00 	sts	0x007A, r24	; 0x80007a <PWM_SEC_Counter>
 384:	90 91 82 00 	lds	r25, 0x0082	; 0x800082 <dawn_step>
 388:	89 13       	cpse	r24, r25
 38a:	1a c0       	rjmp	.+52     	; 0x3c0 <__vector_4+0x9a>
 38c:	10 92 7a 00 	sts	0x007A, r1	; 0x80007a <PWM_SEC_Counter>
 390:	80 91 7b 00 	lds	r24, 0x007B	; 0x80007b <dawn_counter>
 394:	81 50       	subi	r24, 0x01	; 1
 396:	80 93 7b 00 	sts	0x007B, r24	; 0x80007b <dawn_counter>
 39a:	e0 91 7b 00 	lds	r30, 0x007B	; 0x80007b <dawn_counter>
 39e:	e0 95       	com	r30
 3a0:	f0 e0       	ldi	r31, 0x00	; 0
 3a2:	e6 5a       	subi	r30, 0xA6	; 166
 3a4:	ff 4f       	sbci	r31, 0xFF	; 255
 3a6:	e4 91       	lpm	r30, Z
 3a8:	f0 e0       	ldi	r31, 0x00	; 0
 3aa:	fb bd       	out	0x2b, r31	; 43
 3ac:	ea bd       	out	0x2a, r30	; 42
 3ae:	80 91 7b 00 	lds	r24, 0x007B	; 0x80007b <dawn_counter>
 3b2:	81 11       	cpse	r24, r1
 3b4:	05 c0       	rjmp	.+10     	; 0x3c0 <__vector_4+0x9a>
 3b6:	1d bc       	out	0x2d, r1	; 45
 3b8:	1c bc       	out	0x2c, r1	; 44
 3ba:	1b bc       	out	0x2b, r1	; 43
 3bc:	1a bc       	out	0x2a, r1	; 42
 3be:	1f bc       	out	0x2f, r1	; 47
 3c0:	80 91 7c 00 	lds	r24, 0x007C	; 0x80007c <t>
 3c4:	8f 5f       	subi	r24, 0xFF	; 255
 3c6:	8c 33       	cpi	r24, 0x3C	; 60
 3c8:	19 f0       	breq	.+6      	; 0x3d0 <__vector_4+0xaa>
 3ca:	80 93 7c 00 	sts	0x007C, r24	; 0x80007c <t>
 3ce:	52 c0       	rjmp	.+164    	; 0x474 <__stack+0x15>
 3d0:	10 92 7c 00 	sts	0x007C, r1	; 0x80007c <t>
 3d4:	10 92 77 00 	sts	0x0077, r1	; 0x800077 <__data_end+0x1>
 3d8:	10 92 76 00 	sts	0x0076, r1	; 0x800076 <__data_end>
 3dc:	80 91 7d 00 	lds	r24, 0x007D	; 0x80007d <t+0x1>
 3e0:	8f 5f       	subi	r24, 0xFF	; 255
 3e2:	8c 33       	cpi	r24, 0x3C	; 60
 3e4:	19 f0       	breq	.+6      	; 0x3ec <__vector_4+0xc6>
 3e6:	80 93 7d 00 	sts	0x007D, r24	; 0x80007d <t+0x1>
 3ea:	14 c0       	rjmp	.+40     	; 0x414 <__LOCK_REGION_LENGTH__+0x14>
 3ec:	10 92 7d 00 	sts	0x007D, r1	; 0x80007d <t+0x1>
 3f0:	80 91 7e 00 	lds	r24, 0x007E	; 0x80007e <t+0x2>
 3f4:	8f 5f       	subi	r24, 0xFF	; 255
 3f6:	88 31       	cpi	r24, 0x18	; 24
 3f8:	19 f0       	breq	.+6      	; 0x400 <__LOCK_REGION_LENGTH__>
 3fa:	80 93 7e 00 	sts	0x007E, r24	; 0x80007e <t+0x2>
 3fe:	0a c0       	rjmp	.+20     	; 0x414 <__LOCK_REGION_LENGTH__+0x14>
 400:	10 92 7e 00 	sts	0x007E, r1	; 0x80007e <t+0x2>
 404:	80 91 7f 00 	lds	r24, 0x007F	; 0x80007f <t+0x3>
 408:	8f 5f       	subi	r24, 0xFF	; 255
 40a:	88 30       	cpi	r24, 0x08	; 8
 40c:	09 f4       	brne	.+2      	; 0x410 <__LOCK_REGION_LENGTH__+0x10>
 40e:	81 e0       	ldi	r24, 0x01	; 1
 410:	80 93 7f 00 	sts	0x007F, r24	; 0x80007f <t+0x3>
 414:	80 91 62 00 	lds	r24, 0x0062	; 0x800062 <dawn_on>
 418:	88 23       	and	r24, r24
 41a:	61 f1       	breq	.+88     	; 0x474 <__stack+0x15>
 41c:	80 91 7f 00 	lds	r24, 0x007F	; 0x80007f <t+0x3>
 420:	90 e0       	ldi	r25, 0x00	; 0
 422:	81 50       	subi	r24, 0x01	; 1
 424:	90 40       	sbci	r25, 0x00	; 0
 426:	3e d2       	rcall	.+1148   	; 0x8a4 <eeprom_read_byte>
 428:	88 23       	and	r24, r24
 42a:	21 f1       	breq	.+72     	; 0x474 <__stack+0x15>
 42c:	8b e0       	ldi	r24, 0x0B	; 11
 42e:	90 e0       	ldi	r25, 0x00	; 0
 430:	39 d2       	rcall	.+1138   	; 0x8a4 <eeprom_read_byte>
 432:	d8 2f       	mov	r29, r24
 434:	8a e0       	ldi	r24, 0x0A	; 10
 436:	90 e0       	ldi	r25, 0x00	; 0
 438:	35 d2       	rcall	.+1130   	; 0x8a4 <eeprom_read_byte>
 43a:	c8 2f       	mov	r28, r24
 43c:	87 e0       	ldi	r24, 0x07	; 7
 43e:	90 e0       	ldi	r25, 0x00	; 0
 440:	31 d2       	rcall	.+1122   	; 0x8a4 <eeprom_read_byte>
 442:	c8 17       	cp	r28, r24
 444:	28 f4       	brcc	.+10     	; 0x450 <__LOCK_REGION_LENGTH__+0x50>
 446:	d1 11       	cpse	r29, r1
 448:	01 c0       	rjmp	.+2      	; 0x44c <__LOCK_REGION_LENGTH__+0x4c>
 44a:	d8 e1       	ldi	r29, 0x18	; 24
 44c:	d1 50       	subi	r29, 0x01	; 1
 44e:	c4 5c       	subi	r28, 0xC4	; 196
 450:	c8 1b       	sub	r28, r24
 452:	80 91 7e 00 	lds	r24, 0x007E	; 0x80007e <t+0x2>
 456:	d8 13       	cpse	r29, r24
 458:	0d c0       	rjmp	.+26     	; 0x474 <__stack+0x15>
 45a:	80 91 7d 00 	lds	r24, 0x007D	; 0x80007d <t+0x1>
 45e:	c8 13       	cpse	r28, r24
 460:	09 c0       	rjmp	.+18     	; 0x474 <__stack+0x15>
 462:	8f ef       	ldi	r24, 0xFF	; 255
 464:	80 93 7b 00 	sts	0x007B, r24	; 0x80007b <dawn_counter>
 468:	1b bc       	out	0x2b, r1	; 43
 46a:	1a bc       	out	0x2a, r1	; 42
 46c:	1d bc       	out	0x2d, r1	; 45
 46e:	1c bc       	out	0x2c, r1	; 44
 470:	81 e8       	ldi	r24, 0x81	; 129
 472:	8f bd       	out	0x2f, r24	; 47
 474:	ff 91       	pop	r31
 476:	ef 91       	pop	r30
 478:	df 91       	pop	r29
 47a:	cf 91       	pop	r28
 47c:	bf 91       	pop	r27
 47e:	af 91       	pop	r26
 480:	9f 91       	pop	r25
 482:	8f 91       	pop	r24
 484:	7f 91       	pop	r23
 486:	6f 91       	pop	r22
 488:	5f 91       	pop	r21
 48a:	4f 91       	pop	r20
 48c:	3f 91       	pop	r19
 48e:	2f 91       	pop	r18
 490:	0f 90       	pop	r0
 492:	0f be       	out	0x3f, r0	; 63
 494:	0f 90       	pop	r0
 496:	1f 90       	pop	r1
 498:	18 95       	reti

0000049a <__vector_1>:
 49a:	1f 92       	push	r1
 49c:	0f 92       	push	r0
 49e:	0f b6       	in	r0, 0x3f	; 63
 4a0:	0f 92       	push	r0
 4a2:	11 24       	eor	r1, r1
 4a4:	8f 93       	push	r24
 4a6:	9f 93       	push	r25
 4a8:	80 b3       	in	r24, 0x10	; 16
 4aa:	82 fb       	bst	r24, 2
 4ac:	99 27       	eor	r25, r25
 4ae:	90 f9       	bld	r25, 0
 4b0:	81 e0       	ldi	r24, 0x01	; 1
 4b2:	89 27       	eor	r24, r25
 4b4:	80 93 78 00 	sts	0x0078, r24	; 0x800078 <h_pressed>
 4b8:	10 92 77 00 	sts	0x0077, r1	; 0x800077 <__data_end+0x1>
 4bc:	10 92 76 00 	sts	0x0076, r1	; 0x800076 <__data_end>
 4c0:	9f 91       	pop	r25
 4c2:	8f 91       	pop	r24
 4c4:	0f 90       	pop	r0
 4c6:	0f be       	out	0x3f, r0	; 63
 4c8:	0f 90       	pop	r0
 4ca:	1f 90       	pop	r1
 4cc:	18 95       	reti

000004ce <__vector_2>:
 4ce:	1f 92       	push	r1
 4d0:	0f 92       	push	r0
 4d2:	0f b6       	in	r0, 0x3f	; 63
 4d4:	0f 92       	push	r0
 4d6:	11 24       	eor	r1, r1
 4d8:	8f 93       	push	r24
 4da:	9f 93       	push	r25
 4dc:	80 b3       	in	r24, 0x10	; 16
 4de:	83 fb       	bst	r24, 3
 4e0:	99 27       	eor	r25, r25
 4e2:	90 f9       	bld	r25, 0
 4e4:	81 e0       	ldi	r24, 0x01	; 1
 4e6:	89 27       	eor	r24, r25
 4e8:	80 93 79 00 	sts	0x0079, r24	; 0x800079 <m_pressed>
 4ec:	10 92 77 00 	sts	0x0077, r1	; 0x800077 <__data_end+0x1>
 4f0:	10 92 76 00 	sts	0x0076, r1	; 0x800076 <__data_end>
 4f4:	9f 91       	pop	r25
 4f6:	8f 91       	pop	r24
 4f8:	0f 90       	pop	r0
 4fa:	0f be       	out	0x3f, r0	; 63
 4fc:	0f 90       	pop	r0
 4fe:	1f 90       	pop	r1
 500:	18 95       	reti

00000502 <__vector_9>:
 502:	1f 92       	push	r1
 504:	0f 92       	push	r0
 506:	0f b6       	in	r0, 0x3f	; 63
 508:	0f 92       	push	r0
 50a:	11 24       	eor	r1, r1
 50c:	0f 93       	push	r16
 50e:	1f 93       	push	r17
 510:	2f 93       	push	r18
 512:	3f 93       	push	r19
 514:	4f 93       	push	r20
 516:	5f 93       	push	r21
 518:	6f 93       	push	r22
 51a:	7f 93       	push	r23
 51c:	8f 93       	push	r24
 51e:	9f 93       	push	r25
 520:	af 93       	push	r26
 522:	bf 93       	push	r27
 524:	ef 93       	push	r30
 526:	ff 93       	push	r31
 528:	cf 93       	push	r28
 52a:	df 93       	push	r29
 52c:	1f 92       	push	r1
 52e:	cd b7       	in	r28, 0x3d	; 61
 530:	de b7       	in	r29, 0x3e	; 62
 532:	8f e0       	ldi	r24, 0x0F	; 15
 534:	85 bb       	out	0x15, r24	; 21
 536:	19 82       	std	Y+1, r1	; 0x01
 538:	80 91 81 00 	lds	r24, 0x0081	; 0x800081 <current_digit>
 53c:	81 30       	cpi	r24, 0x01	; 1
 53e:	41 f4       	brne	.+16     	; 0x550 <__vector_9+0x4e>
 540:	80 91 7c 00 	lds	r24, 0x007C	; 0x80007c <t>
 544:	80 ff       	sbrs	r24, 0
 546:	02 c0       	rjmp	.+4      	; 0x54c <__vector_9+0x4a>
 548:	19 82       	std	Y+1, r1	; 0x01
 54a:	02 c0       	rjmp	.+4      	; 0x550 <__vector_9+0x4e>
 54c:	80 e8       	ldi	r24, 0x80	; 128
 54e:	89 83       	std	Y+1, r24	; 0x01
 550:	80 91 81 00 	lds	r24, 0x0081	; 0x800081 <current_digit>
 554:	83 30       	cpi	r24, 0x03	; 3
 556:	b1 f4       	brne	.+44     	; 0x584 <__vector_9+0x82>
 558:	90 91 62 00 	lds	r25, 0x0062	; 0x800062 <dawn_on>
 55c:	80 91 80 00 	lds	r24, 0x0080	; 0x800080 <menu>
 560:	91 30       	cpi	r25, 0x01	; 1
 562:	11 f4       	brne	.+4      	; 0x568 <__vector_9+0x66>
 564:	88 23       	and	r24, r24
 566:	51 f0       	breq	.+20     	; 0x57c <__vector_9+0x7a>
 568:	9d ef       	ldi	r25, 0xFD	; 253
 56a:	98 0f       	add	r25, r24
 56c:	97 30       	cpi	r25, 0x07	; 7
 56e:	48 f4       	brcc	.+18     	; 0x582 <__vector_9+0x80>
 570:	90 e0       	ldi	r25, 0x00	; 0
 572:	83 50       	subi	r24, 0x03	; 3
 574:	90 40       	sbci	r25, 0x00	; 0
 576:	96 d1       	rcall	.+812    	; 0x8a4 <eeprom_read_byte>
 578:	88 23       	and	r24, r24
 57a:	19 f0       	breq	.+6      	; 0x582 <__vector_9+0x80>
 57c:	80 e8       	ldi	r24, 0x80	; 128
 57e:	89 83       	std	Y+1, r24	; 0x01
 580:	01 c0       	rjmp	.+2      	; 0x584 <__vector_9+0x82>
 582:	19 82       	std	Y+1, r1	; 0x01
 584:	80 91 61 00 	lds	r24, 0x0061	; 0x800061 <indication_counter>
 588:	88 23       	and	r24, r24
 58a:	c9 f0       	breq	.+50     	; 0x5be <__vector_9+0xbc>
 58c:	80 91 81 00 	lds	r24, 0x0081	; 0x800081 <current_digit>
 590:	81 11       	cpse	r24, r1
 592:	08 c0       	rjmp	.+16     	; 0x5a4 <__vector_9+0xa2>
 594:	80 91 80 00 	lds	r24, 0x0080	; 0x800080 <menu>
 598:	81 30       	cpi	r24, 0x01	; 1
 59a:	19 f4       	brne	.+6      	; 0x5a2 <__vector_9+0xa0>
 59c:	80 e8       	ldi	r24, 0x80	; 128
 59e:	89 83       	std	Y+1, r24	; 0x01
 5a0:	01 c0       	rjmp	.+2      	; 0x5a4 <__vector_9+0xa2>
 5a2:	19 82       	std	Y+1, r1	; 0x01
 5a4:	e0 91 81 00 	lds	r30, 0x0081	; 0x800081 <current_digit>
 5a8:	99 81       	ldd	r25, Y+1	; 0x01
 5aa:	f0 e0       	ldi	r31, 0x00	; 0
 5ac:	ed 57       	subi	r30, 0x7D	; 125
 5ae:	ff 4f       	sbci	r31, 0xFF	; 255
 5b0:	e0 81       	ld	r30, Z
 5b2:	f0 e0       	ldi	r31, 0x00	; 0
 5b4:	ed 59       	subi	r30, 0x9D	; 157
 5b6:	ff 4f       	sbci	r31, 0xFF	; 255
 5b8:	80 81       	ld	r24, Z
 5ba:	89 2b       	or	r24, r25
 5bc:	89 83       	std	Y+1, r24	; 0x01
 5be:	10 91 60 00 	lds	r17, 0x0060	; 0x800060 <__data_start>
 5c2:	89 e0       	ldi	r24, 0x09	; 9
 5c4:	90 e0       	ldi	r25, 0x00	; 0
 5c6:	6e d1       	rcall	.+732    	; 0x8a4 <eeprom_read_byte>
 5c8:	18 1b       	sub	r17, r24
 5ca:	19 f0       	breq	.+6      	; 0x5d2 <__vector_9+0xd0>
 5cc:	10 93 60 00 	sts	0x0060, r17	; 0x800060 <__data_start>
 5d0:	21 c0       	rjmp	.+66     	; 0x614 <__vector_9+0x112>
 5d2:	82 e0       	ldi	r24, 0x02	; 2
 5d4:	80 93 60 00 	sts	0x0060, r24	; 0x800060 <__data_start>
 5d8:	89 81       	ldd	r24, Y+1	; 0x01
 5da:	80 95       	com	r24
 5dc:	e7 dd       	rcall	.-1074   	; 0x1ac <SPI_MasterTransmit>
 5de:	80 91 81 00 	lds	r24, 0x0081	; 0x800081 <current_digit>
 5e2:	45 b3       	in	r20, 0x15	; 21
 5e4:	23 e0       	ldi	r18, 0x03	; 3
 5e6:	30 e0       	ldi	r19, 0x00	; 0
 5e8:	28 1b       	sub	r18, r24
 5ea:	31 09       	sbc	r19, r1
 5ec:	81 e0       	ldi	r24, 0x01	; 1
 5ee:	90 e0       	ldi	r25, 0x00	; 0
 5f0:	02 c0       	rjmp	.+4      	; 0x5f6 <__vector_9+0xf4>
 5f2:	88 0f       	add	r24, r24
 5f4:	99 1f       	adc	r25, r25
 5f6:	2a 95       	dec	r18
 5f8:	e2 f7       	brpl	.-8      	; 0x5f2 <__vector_9+0xf0>
 5fa:	80 95       	com	r24
 5fc:	90 95       	com	r25
 5fe:	84 23       	and	r24, r20
 600:	85 bb       	out	0x15, r24	; 21
 602:	80 91 81 00 	lds	r24, 0x0081	; 0x800081 <current_digit>
 606:	8f 5f       	subi	r24, 0xFF	; 255
 608:	80 93 81 00 	sts	0x0081, r24	; 0x800081 <current_digit>
 60c:	84 30       	cpi	r24, 0x04	; 4
 60e:	11 f4       	brne	.+4      	; 0x614 <__vector_9+0x112>
 610:	10 92 81 00 	sts	0x0081, r1	; 0x800081 <current_digit>
 614:	80 91 76 00 	lds	r24, 0x0076	; 0x800076 <__data_end>
 618:	90 91 77 00 	lds	r25, 0x0077	; 0x800077 <__data_end+0x1>
 61c:	03 97       	sbiw	r24, 0x03	; 3
 61e:	c1 f4       	brne	.+48     	; 0x650 <__vector_9+0x14e>
 620:	80 91 78 00 	lds	r24, 0x0078	; 0x800078 <h_pressed>
 624:	81 11       	cpse	r24, r1
 626:	05 c0       	rjmp	.+10     	; 0x632 <__vector_9+0x130>
 628:	80 91 79 00 	lds	r24, 0x0079	; 0x800079 <m_pressed>
 62c:	88 23       	and	r24, r24
 62e:	09 f4       	brne	.+2      	; 0x632 <__vector_9+0x130>
 630:	0c c1       	rjmp	.+536    	; 0x84a <__vector_9+0x348>
 632:	8c e3       	ldi	r24, 0x3C	; 60
 634:	80 93 61 00 	sts	0x0061, r24	; 0x800061 <indication_counter>
 638:	80 91 7b 00 	lds	r24, 0x007B	; 0x80007b <dawn_counter>
 63c:	88 23       	and	r24, r24
 63e:	09 f4       	brne	.+2      	; 0x642 <__vector_9+0x140>
 640:	04 c1       	rjmp	.+520    	; 0x84a <__vector_9+0x348>
 642:	10 92 7b 00 	sts	0x007B, r1	; 0x80007b <dawn_counter>
 646:	1d bc       	out	0x2d, r1	; 45
 648:	1c bc       	out	0x2c, r1	; 44
 64a:	1b bc       	out	0x2b, r1	; 43
 64c:	1a bc       	out	0x2a, r1	; 42
 64e:	1f bc       	out	0x2f, r1	; 47
 650:	80 91 76 00 	lds	r24, 0x0076	; 0x800076 <__data_end>
 654:	90 91 77 00 	lds	r25, 0x0077	; 0x800077 <__data_end+0x1>
 658:	01 96       	adiw	r24, 0x01	; 1
 65a:	8c 32       	cpi	r24, 0x2C	; 44
 65c:	21 e0       	ldi	r18, 0x01	; 1
 65e:	92 07       	cpc	r25, r18
 660:	29 f0       	breq	.+10     	; 0x66c <__vector_9+0x16a>
 662:	90 93 77 00 	sts	0x0077, r25	; 0x800077 <__data_end+0x1>
 666:	80 93 76 00 	sts	0x0076, r24	; 0x800076 <__data_end>
 66a:	f2 c0       	rjmp	.+484    	; 0x850 <__vector_9+0x34e>
 66c:	10 92 77 00 	sts	0x0077, r1	; 0x800077 <__data_end+0x1>
 670:	10 92 76 00 	sts	0x0076, r1	; 0x800076 <__data_end>
 674:	84 99       	sbic	0x10, 4	; 16
 676:	11 c0       	rjmp	.+34     	; 0x69a <__vector_9+0x198>
 678:	80 91 61 00 	lds	r24, 0x0061	; 0x800061 <indication_counter>
 67c:	88 23       	and	r24, r24
 67e:	69 f0       	breq	.+26     	; 0x69a <__vector_9+0x198>
 680:	80 91 80 00 	lds	r24, 0x0080	; 0x800080 <menu>
 684:	8f 5f       	subi	r24, 0xFF	; 255
 686:	8d 30       	cpi	r24, 0x0D	; 13
 688:	19 f0       	breq	.+6      	; 0x690 <__vector_9+0x18e>
 68a:	80 93 80 00 	sts	0x0080, r24	; 0x800080 <menu>
 68e:	05 c0       	rjmp	.+10     	; 0x69a <__vector_9+0x198>
 690:	10 92 80 00 	sts	0x0080, r1	; 0x800080 <menu>
 694:	8c e3       	ldi	r24, 0x3C	; 60
 696:	80 93 61 00 	sts	0x0061, r24	; 0x800061 <indication_counter>
 69a:	80 91 78 00 	lds	r24, 0x0078	; 0x800078 <h_pressed>
 69e:	88 23       	and	r24, r24
 6a0:	49 f1       	breq	.+82     	; 0x6f4 <__vector_9+0x1f2>
 6a2:	84 9b       	sbis	0x10, 4	; 16
 6a4:	27 c0       	rjmp	.+78     	; 0x6f4 <__vector_9+0x1f2>
 6a6:	80 91 79 00 	lds	r24, 0x0079	; 0x800079 <m_pressed>
 6aa:	81 11       	cpse	r24, r1
 6ac:	28 c0       	rjmp	.+80     	; 0x6fe <__vector_9+0x1fc>
 6ae:	80 91 80 00 	lds	r24, 0x0080	; 0x800080 <menu>
 6b2:	81 11       	cpse	r24, r1
 6b4:	0b c0       	rjmp	.+22     	; 0x6cc <__vector_9+0x1ca>
 6b6:	80 91 7e 00 	lds	r24, 0x007E	; 0x80007e <t+0x2>
 6ba:	8f 5f       	subi	r24, 0xFF	; 255
 6bc:	88 31       	cpi	r24, 0x18	; 24
 6be:	19 f0       	breq	.+6      	; 0x6c6 <__vector_9+0x1c4>
 6c0:	80 93 7e 00 	sts	0x007E, r24	; 0x80007e <t+0x2>
 6c4:	a9 c0       	rjmp	.+338    	; 0x818 <__vector_9+0x316>
 6c6:	10 92 7e 00 	sts	0x007E, r1	; 0x80007e <t+0x2>
 6ca:	14 c0       	rjmp	.+40     	; 0x6f4 <__vector_9+0x1f2>
 6cc:	81 30       	cpi	r24, 0x01	; 1
 6ce:	09 f0       	breq	.+2      	; 0x6d2 <__vector_9+0x1d0>
 6d0:	a3 c0       	rjmp	.+326    	; 0x818 <__vector_9+0x316>
 6d2:	8b e0       	ldi	r24, 0x0B	; 11
 6d4:	90 e0       	ldi	r25, 0x00	; 0
 6d6:	e6 d0       	rcall	.+460    	; 0x8a4 <eeprom_read_byte>
 6d8:	61 e0       	ldi	r22, 0x01	; 1
 6da:	68 0f       	add	r22, r24
 6dc:	8b e0       	ldi	r24, 0x0B	; 11
 6de:	90 e0       	ldi	r25, 0x00	; 0
 6e0:	e9 d0       	rcall	.+466    	; 0x8b4 <eeprom_write_byte>
 6e2:	8b e0       	ldi	r24, 0x0B	; 11
 6e4:	90 e0       	ldi	r25, 0x00	; 0
 6e6:	de d0       	rcall	.+444    	; 0x8a4 <eeprom_read_byte>
 6e8:	88 31       	cpi	r24, 0x18	; 24
 6ea:	21 f4       	brne	.+8      	; 0x6f4 <__vector_9+0x1f2>
 6ec:	60 e0       	ldi	r22, 0x00	; 0
 6ee:	8b e0       	ldi	r24, 0x0B	; 11
 6f0:	90 e0       	ldi	r25, 0x00	; 0
 6f2:	e0 d0       	rcall	.+448    	; 0x8b4 <eeprom_write_byte>
 6f4:	80 91 79 00 	lds	r24, 0x0079	; 0x800079 <m_pressed>
 6f8:	88 23       	and	r24, r24
 6fa:	09 f4       	brne	.+2      	; 0x6fe <__vector_9+0x1fc>
 6fc:	8d c0       	rjmp	.+282    	; 0x818 <__vector_9+0x316>
 6fe:	84 9b       	sbis	0x10, 4	; 16
 700:	8b c0       	rjmp	.+278    	; 0x818 <__vector_9+0x316>
 702:	80 91 78 00 	lds	r24, 0x0078	; 0x800078 <h_pressed>
 706:	81 11       	cpse	r24, r1
 708:	8b c0       	rjmp	.+278    	; 0x820 <__vector_9+0x31e>
 70a:	00 91 80 00 	lds	r16, 0x0080	; 0x800080 <menu>
 70e:	80 2f       	mov	r24, r16
 710:	90 e0       	ldi	r25, 0x00	; 0
 712:	8d 30       	cpi	r24, 0x0D	; 13
 714:	91 05       	cpc	r25, r1
 716:	08 f0       	brcs	.+2      	; 0x71a <__vector_9+0x218>
 718:	7f c0       	rjmp	.+254    	; 0x818 <__vector_9+0x316>
 71a:	fc 01       	movw	r30, r24
 71c:	e0 5e       	subi	r30, 0xE0	; 224
 71e:	ff 4f       	sbci	r31, 0xFF	; 255
 720:	09 94       	ijmp
 722:	80 91 7d 00 	lds	r24, 0x007D	; 0x80007d <t+0x1>
 726:	8f 5f       	subi	r24, 0xFF	; 255
 728:	8c 33       	cpi	r24, 0x3C	; 60
 72a:	19 f0       	breq	.+6      	; 0x732 <__vector_9+0x230>
 72c:	80 93 7d 00 	sts	0x007D, r24	; 0x80007d <t+0x1>
 730:	8f c0       	rjmp	.+286    	; 0x850 <__vector_9+0x34e>
 732:	10 92 7d 00 	sts	0x007D, r1	; 0x80007d <t+0x1>
 736:	70 c0       	rjmp	.+224    	; 0x818 <__vector_9+0x316>
 738:	8a e0       	ldi	r24, 0x0A	; 10
 73a:	90 e0       	ldi	r25, 0x00	; 0
 73c:	b3 d0       	rcall	.+358    	; 0x8a4 <eeprom_read_byte>
 73e:	61 e0       	ldi	r22, 0x01	; 1
 740:	68 0f       	add	r22, r24
 742:	8a e0       	ldi	r24, 0x0A	; 10
 744:	90 e0       	ldi	r25, 0x00	; 0
 746:	b6 d0       	rcall	.+364    	; 0x8b4 <eeprom_write_byte>
 748:	8a e0       	ldi	r24, 0x0A	; 10
 74a:	90 e0       	ldi	r25, 0x00	; 0
 74c:	ab d0       	rcall	.+342    	; 0x8a4 <eeprom_read_byte>
 74e:	8c 33       	cpi	r24, 0x3C	; 60
 750:	09 f0       	breq	.+2      	; 0x754 <__vector_9+0x252>
 752:	62 c0       	rjmp	.+196    	; 0x818 <__vector_9+0x316>
 754:	60 e0       	ldi	r22, 0x00	; 0
 756:	8a e0       	ldi	r24, 0x0A	; 10
 758:	90 e0       	ldi	r25, 0x00	; 0
 75a:	15 c0       	rjmp	.+42     	; 0x786 <__vector_9+0x284>
 75c:	80 91 7f 00 	lds	r24, 0x007F	; 0x80007f <t+0x3>
 760:	8f 5f       	subi	r24, 0xFF	; 255
 762:	88 30       	cpi	r24, 0x08	; 8
 764:	19 f0       	breq	.+6      	; 0x76c <__vector_9+0x26a>
 766:	80 93 7f 00 	sts	0x007F, r24	; 0x80007f <t+0x3>
 76a:	72 c0       	rjmp	.+228    	; 0x850 <__vector_9+0x34e>
 76c:	81 e0       	ldi	r24, 0x01	; 1
 76e:	80 93 7f 00 	sts	0x007F, r24	; 0x80007f <t+0x3>
 772:	52 c0       	rjmp	.+164    	; 0x818 <__vector_9+0x316>
 774:	10 e0       	ldi	r17, 0x00	; 0
 776:	03 50       	subi	r16, 0x03	; 3
 778:	10 40       	sbci	r17, 0x00	; 0
 77a:	c8 01       	movw	r24, r16
 77c:	93 d0       	rcall	.+294    	; 0x8a4 <eeprom_read_byte>
 77e:	88 23       	and	r24, r24
 780:	21 f0       	breq	.+8      	; 0x78a <__vector_9+0x288>
 782:	60 e0       	ldi	r22, 0x00	; 0
 784:	c8 01       	movw	r24, r16
 786:	96 d0       	rcall	.+300    	; 0x8b4 <eeprom_write_byte>
 788:	47 c0       	rjmp	.+142    	; 0x818 <__vector_9+0x316>
 78a:	61 e0       	ldi	r22, 0x01	; 1
 78c:	fb cf       	rjmp	.-10     	; 0x784 <__vector_9+0x282>
 78e:	89 e0       	ldi	r24, 0x09	; 9
 790:	90 e0       	ldi	r25, 0x00	; 0
 792:	88 d0       	rcall	.+272    	; 0x8a4 <eeprom_read_byte>
 794:	61 e0       	ldi	r22, 0x01	; 1
 796:	68 0f       	add	r22, r24
 798:	89 e0       	ldi	r24, 0x09	; 9
 79a:	90 e0       	ldi	r25, 0x00	; 0
 79c:	8b d0       	rcall	.+278    	; 0x8b4 <eeprom_write_byte>
 79e:	89 e0       	ldi	r24, 0x09	; 9
 7a0:	90 e0       	ldi	r25, 0x00	; 0
 7a2:	80 d0       	rcall	.+256    	; 0x8a4 <eeprom_read_byte>
 7a4:	83 30       	cpi	r24, 0x03	; 3
 7a6:	21 f4       	brne	.+8      	; 0x7b0 <__vector_9+0x2ae>
 7a8:	61 e0       	ldi	r22, 0x01	; 1
 7aa:	89 e0       	ldi	r24, 0x09	; 9
 7ac:	90 e0       	ldi	r25, 0x00	; 0
 7ae:	82 d0       	rcall	.+260    	; 0x8b4 <eeprom_write_byte>
 7b0:	82 e0       	ldi	r24, 0x02	; 2
 7b2:	80 93 60 00 	sts	0x0060, r24	; 0x800060 <__data_start>
 7b6:	30 c0       	rjmp	.+96     	; 0x818 <__vector_9+0x316>
 7b8:	88 e0       	ldi	r24, 0x08	; 8
 7ba:	90 e0       	ldi	r25, 0x00	; 0
 7bc:	73 d0       	rcall	.+230    	; 0x8a4 <eeprom_read_byte>
 7be:	61 e0       	ldi	r22, 0x01	; 1
 7c0:	68 0f       	add	r22, r24
 7c2:	88 e0       	ldi	r24, 0x08	; 8
 7c4:	90 e0       	ldi	r25, 0x00	; 0
 7c6:	76 d0       	rcall	.+236    	; 0x8b4 <eeprom_write_byte>
 7c8:	88 e0       	ldi	r24, 0x08	; 8
 7ca:	90 e0       	ldi	r25, 0x00	; 0
 7cc:	6b d0       	rcall	.+214    	; 0x8a4 <eeprom_read_byte>
 7ce:	82 30       	cpi	r24, 0x02	; 2
 7d0:	19 f5       	brne	.+70     	; 0x818 <__vector_9+0x316>
 7d2:	60 e0       	ldi	r22, 0x00	; 0
 7d4:	88 e0       	ldi	r24, 0x08	; 8
 7d6:	90 e0       	ldi	r25, 0x00	; 0
 7d8:	d6 cf       	rjmp	.-84     	; 0x786 <__vector_9+0x284>
 7da:	87 e0       	ldi	r24, 0x07	; 7
 7dc:	90 e0       	ldi	r25, 0x00	; 0
 7de:	62 d0       	rcall	.+196    	; 0x8a4 <eeprom_read_byte>
 7e0:	65 e0       	ldi	r22, 0x05	; 5
 7e2:	68 0f       	add	r22, r24
 7e4:	87 e0       	ldi	r24, 0x07	; 7
 7e6:	90 e0       	ldi	r25, 0x00	; 0
 7e8:	65 d0       	rcall	.+202    	; 0x8b4 <eeprom_write_byte>
 7ea:	87 e0       	ldi	r24, 0x07	; 7
 7ec:	90 e0       	ldi	r25, 0x00	; 0
 7ee:	5a d0       	rcall	.+180    	; 0x8a4 <eeprom_read_byte>
 7f0:	8f 31       	cpi	r24, 0x1F	; 31
 7f2:	20 f0       	brcs	.+8      	; 0x7fc <__vector_9+0x2fa>
 7f4:	6f e0       	ldi	r22, 0x0F	; 15
 7f6:	87 e0       	ldi	r24, 0x07	; 7
 7f8:	90 e0       	ldi	r25, 0x00	; 0
 7fa:	5c d0       	rcall	.+184    	; 0x8b4 <eeprom_write_byte>
 7fc:	87 e0       	ldi	r24, 0x07	; 7
 7fe:	90 e0       	ldi	r25, 0x00	; 0
 800:	51 d0       	rcall	.+162    	; 0x8a4 <eeprom_read_byte>
 802:	2c e3       	ldi	r18, 0x3C	; 60
 804:	82 9f       	mul	r24, r18
 806:	c0 01       	movw	r24, r0
 808:	11 24       	eor	r1, r1
 80a:	81 58       	subi	r24, 0x81	; 129
 80c:	9f 4f       	sbci	r25, 0xFF	; 255
 80e:	6f ef       	ldi	r22, 0xFF	; 255
 810:	70 e0       	ldi	r23, 0x00	; 0
 812:	34 d0       	rcall	.+104    	; 0x87c <__udivmodhi4>
 814:	60 93 82 00 	sts	0x0082, r22	; 0x800082 <dawn_step>
 818:	80 91 78 00 	lds	r24, 0x0078	; 0x800078 <h_pressed>
 81c:	88 23       	and	r24, r24
 81e:	c1 f0       	breq	.+48     	; 0x850 <__vector_9+0x34e>
 820:	80 91 79 00 	lds	r24, 0x0079	; 0x800079 <m_pressed>
 824:	88 23       	and	r24, r24
 826:	a1 f0       	breq	.+40     	; 0x850 <__vector_9+0x34e>
 828:	84 9b       	sbis	0x10, 4	; 16
 82a:	12 c0       	rjmp	.+36     	; 0x850 <__vector_9+0x34e>
 82c:	80 91 80 00 	lds	r24, 0x0080	; 0x800080 <menu>
 830:	82 30       	cpi	r24, 0x02	; 2
 832:	70 f4       	brcc	.+28     	; 0x850 <__vector_9+0x34e>
 834:	80 91 62 00 	lds	r24, 0x0062	; 0x800062 <dawn_on>
 838:	88 23       	and	r24, r24
 83a:	19 f0       	breq	.+6      	; 0x842 <__vector_9+0x340>
 83c:	10 92 62 00 	sts	0x0062, r1	; 0x800062 <dawn_on>
 840:	07 c0       	rjmp	.+14     	; 0x850 <__vector_9+0x34e>
 842:	81 e0       	ldi	r24, 0x01	; 1
 844:	80 93 62 00 	sts	0x0062, r24	; 0x800062 <dawn_on>
 848:	03 c0       	rjmp	.+6      	; 0x850 <__vector_9+0x34e>
 84a:	84 e0       	ldi	r24, 0x04	; 4
 84c:	90 e0       	ldi	r25, 0x00	; 0
 84e:	09 cf       	rjmp	.-494    	; 0x662 <__vector_9+0x160>
 850:	0f 90       	pop	r0
 852:	df 91       	pop	r29
 854:	cf 91       	pop	r28
 856:	ff 91       	pop	r31
 858:	ef 91       	pop	r30
 85a:	bf 91       	pop	r27
 85c:	af 91       	pop	r26
 85e:	9f 91       	pop	r25
 860:	8f 91       	pop	r24
 862:	7f 91       	pop	r23
 864:	6f 91       	pop	r22
 866:	5f 91       	pop	r21
 868:	4f 91       	pop	r20
 86a:	3f 91       	pop	r19
 86c:	2f 91       	pop	r18
 86e:	1f 91       	pop	r17
 870:	0f 91       	pop	r16
 872:	0f 90       	pop	r0
 874:	0f be       	out	0x3f, r0	; 63
 876:	0f 90       	pop	r0
 878:	1f 90       	pop	r1
 87a:	18 95       	reti

0000087c <__udivmodhi4>:
 87c:	aa 1b       	sub	r26, r26
 87e:	bb 1b       	sub	r27, r27
 880:	51 e1       	ldi	r21, 0x11	; 17
 882:	07 c0       	rjmp	.+14     	; 0x892 <__udivmodhi4_ep>

00000884 <__udivmodhi4_loop>:
 884:	aa 1f       	adc	r26, r26
 886:	bb 1f       	adc	r27, r27
 888:	a6 17       	cp	r26, r22
 88a:	b7 07       	cpc	r27, r23
 88c:	10 f0       	brcs	.+4      	; 0x892 <__udivmodhi4_ep>
 88e:	a6 1b       	sub	r26, r22
 890:	b7 0b       	sbc	r27, r23

00000892 <__udivmodhi4_ep>:
 892:	88 1f       	adc	r24, r24
 894:	99 1f       	adc	r25, r25
 896:	5a 95       	dec	r21
 898:	a9 f7       	brne	.-22     	; 0x884 <__udivmodhi4_loop>
 89a:	80 95       	com	r24
 89c:	90 95       	com	r25
 89e:	bc 01       	movw	r22, r24
 8a0:	cd 01       	movw	r24, r26
 8a2:	08 95       	ret

000008a4 <eeprom_read_byte>:
 8a4:	e1 99       	sbic	0x1c, 1	; 28
 8a6:	fe cf       	rjmp	.-4      	; 0x8a4 <eeprom_read_byte>
 8a8:	9f bb       	out	0x1f, r25	; 31
 8aa:	8e bb       	out	0x1e, r24	; 30
 8ac:	e0 9a       	sbi	0x1c, 0	; 28
 8ae:	99 27       	eor	r25, r25
 8b0:	8d b3       	in	r24, 0x1d	; 29
 8b2:	08 95       	ret

000008b4 <eeprom_write_byte>:
 8b4:	26 2f       	mov	r18, r22

000008b6 <eeprom_write_r18>:
 8b6:	e1 99       	sbic	0x1c, 1	; 28
 8b8:	fe cf       	rjmp	.-4      	; 0x8b6 <eeprom_write_r18>
 8ba:	9f bb       	out	0x1f, r25	; 31
 8bc:	8e bb       	out	0x1e, r24	; 30
 8be:	2d bb       	out	0x1d, r18	; 29
 8c0:	0f b6       	in	r0, 0x3f	; 63
 8c2:	f8 94       	cli
 8c4:	e2 9a       	sbi	0x1c, 2	; 28
 8c6:	e1 9a       	sbi	0x1c, 1	; 28
 8c8:	0f be       	out	0x3f, r0	; 63
 8ca:	01 96       	adiw	r24, 0x01	; 1
 8cc:	08 95       	ret

000008ce <_exit>:
 8ce:	f8 94       	cli

000008d0 <__stop_program>:
 8d0:	ff cf       	rjmp	.-2      	; 0x8d0 <__stop_program>
